; Function Attrs: mustprogress nofree nounwind sspstrong uwtable willreturn
define dso_local double @CalDis(i64 %0, i32 %1, i64 %2, i32 %3) local_unnamed_addr #0 {
  %5 = trunc i64 %0 to i32
  %6 = lshr i64 %0, 32
  %7 = trunc i64 %6 to i32
  %8 = trunc i64 %2 to i32
  %9 = lshr i64 %2, 32
  %10 = trunc i64 %9 to i32
  %11 = sub nsw i32 %5, %8
  %12 = sitofp i32 %11 to double
  %13 = fmul double %12, %12
  %14 = sub nsw i32 %7, %10
  %15 = mul nsw i32 %14, %14
  %16 = sitofp i32 %15 to double
  %17 = fadd double %13, %16
  %18 = sub nsw i32 %1, %3
  %19 = mul nsw i32 %18, %18
  %20 = sitofp i32 %19 to double
  %21 = fadd double %17, %20
  %22 = tail call double @sqrt(double %21) #7
  ret double %22
}

; Function Attrs: mustprogress nofree norecurse nosync nounwind readonly sspstrong uwtable willreturn
define dso_local i32 @cmp(i8* nocapture readonly %0, i8* nocapture readonly %1) #2 {
  %3 = bitcast i8* %1 to double*
  %4 = load double, double* %3, align 8, !tbaa !5
  %5 = bitcast i8* %0 to double*
  %6 = load double, double* %5, align 8, !tbaa !5
  %7 = fcmp une double %4, %6
  br i1 %7, label %8, label %10

8:                                                ; preds = %2
  %9 = fcmp ogt double %4, %6
  br label %18

10:                                               ; preds = %2
  %11 = getelementptr inbounds i8, i8* %0, i64 8
  %12 = bitcast i8* %11 to i32*
  %13 = load i32, i32* %12, align 8, !tbaa !11
  %14 = getelementptr inbounds i8, i8* %1, i64 8
  %15 = bitcast i8* %14 to i32*
  %16 = load i32, i32* %15, align 8, !tbaa !11
  %17 = icmp sgt i32 %13, %16
  br label %18

18:                                               ; preds = %10, %8
  %19 = phi i1 [ %17, %10 ], [ %9, %8 ]
  %20 = select i1 %19, i32 1, i32 -1
  ret i32 %20
}

; Function Attrs: nofree nounwind sspstrong uwtable
define dso_local i32 @main() local_unnamed_addr #3 {
  %1 = alloca i32, align 4
  %2 = alloca [11 x %struct.Point], align 16
  %3 = bitcast i32* %1 to i8*
  call void @llvm.lifetime.start.p0i8(i64 4, i8* nonnull %3) #7
  %4 = bitcast [11 x %struct.Point]* %2 to i8*
  call void @llvm.lifetime.start.p0i8(i64 132, i8* nonnull %4) #7
  %5 = call i32 (i8*, ...) @__isoc99_scanf(i8* getelementptr inbounds ([3 x i8], [3 x i8]* @.str, i64 0, i64 0), i32* nonnull %1)
  %6 = load i32, i32* %1, align 4, !tbaa !12
  %7 = icmp sgt i32 %6, 0
  br i1 %7, label %10, label %80

8:                                                ; preds = %10
  %9 = icmp sgt i32 %17, 0
  br i1 %9, label %29, label %80

10:                                               ; preds = %0, %10
  %11 = phi i64 [ %16, %10 ], [ 0, %0 ]
  %12 = getelementptr inbounds [11 x %struct.Point], [11 x %struct.Point]* %2, i64 0, i64 %11, i32 0
  %13 = getelementptr inbounds [11 x %struct.Point], [11 x %struct.Point]* %2, i64 0, i64 %11, i32 1
  %14 = getelementptr inbounds [11 x %struct.Point], [11 x %struct.Point]* %2, i64 0, i64 %11, i32 2
  %15 = call i32 (i8*, ...) @__isoc99_scanf(i8* getelementptr inbounds ([9 x i8], [9 x i8]* @.str.1, i64 0, i64 0), i32* nonnull %12, i32* nonnull %13, i32* nonnull %14)
  %16 = add nuw nsw i64 %11, 1
  %17 = load i32, i32* %1, align 4, !tbaa !12
  %18 = sext i32 %17 to i64
  %19 = icmp slt i64 %16, %18
  br i1 %19, label %10, label %8, !llvm.loop !13

20:                                               ; preds = %43
  %21 = trunc i64 %73 to i32
  %22 = sext i32 %77 to i64
  br label %23

23:                                               ; preds = %20, %29
  %24 = phi i64 [ %22, %20 ], [ %38, %29 ]
  %25 = phi i32 [ %77, %20 ], [ %30, %29 ]
  %26 = phi i32 [ %21, %20 ], [ %33, %29 ]
  %27 = icmp slt i64 %34, %24
  %28 = add nuw nsw i64 %32, 1
  br i1 %27, label %29, label %81, !llvm.loop !15

29:                                               ; preds = %8, %23
  %30 = phi i32 [ %25, %23 ], [ %17, %8 ]
  %31 = phi i64 [ %34, %23 ], [ 0, %8 ]
  %32 = phi i64 [ %28, %23 ], [ 1, %8 ]
  %33 = phi i32 [ %26, %23 ], [ 0, %8 ]
  %34 = add nuw nsw i64 %31, 1
  %35 = getelementptr inbounds [11 x %struct.Point], [11 x %struct.Point]* %2, i64 0, i64 %31
  %36 = bitcast %struct.Point* %35 to i64*
  %37 = getelementptr inbounds [11 x %struct.Point], [11 x %struct.Point]* %2, i64 0, i64 %31, i32 2
  %38 = sext i32 %30 to i64
  %39 = icmp slt i64 %34, %38
  br i1 %39, label %40, label %23

40:                                               ; preds = %29
  %41 = sext i32 %33 to i64
  %42 = trunc i64 %31 to i32
  br label %43

43:                                               ; preds = %40, %43
  %44 = phi i64 [ %32, %40 ], [ %76, %43 ]
  %45 = phi i64 [ %41, %40 ], [ %73, %43 ]
  %46 = getelementptr inbounds [11 x %struct.Point], [11 x %struct.Point]* %2, i64 0, i64 %44
  %47 = load i64, i64* %36, align 4
  %48 = load i32, i32* %37, align 4
  %49 = bitcast %struct.Point* %46 to i64*
  %50 = load i64, i64* %49, align 4
  %51 = getelementptr inbounds [11 x %struct.Point], [11 x %struct.Point]* %2, i64 0, i64 %44, i32 2
  %52 = load i32, i32* %51, align 4
  %53 = trunc i64 %47 to i32
  %54 = lshr i64 %47, 32
  %55 = trunc i64 %54 to i32
  %56 = trunc i64 %50 to i32
  %57 = lshr i64 %50, 32
  %58 = trunc i64 %57 to i32
  %59 = sub nsw i32 %53, %56
  %60 = sitofp i32 %59 to double
  %61 = fmul double %60, %60
  %62 = sub nsw i32 %55, %58
  %63 = mul nsw i32 %62, %62
  %64 = sitofp i32 %63 to double
  %65 = fadd double %61, %64
  %66 = sub nsw i32 %48, %52
  %67 = mul nsw i32 %66, %66
  %68 = sitofp i32 %67 to double
  %69 = fadd double %65, %68
  %70 = call double @sqrt(double %69) #7
  %71 = getelementptr inbounds [100 x %struct.Distance], [100 x %struct.Distance]* @ds, i64 0, i64 %45, i32 0
  store double %70, double* %71, align 16, !tbaa !5
  %72 = getelementptr inbounds [100 x %struct.Distance], [100 x %struct.Distance]* @ds, i64 0, i64 %45, i32 1
  store i32 %42, i32* %72, align 8, !tbaa !11
  %73 = add nsw i64 %45, 1
  %74 = getelementptr inbounds [100 x %struct.Distance], [100 x %struct.Distance]* @ds, i64 0, i64 %45, i32 2
  %75 = trunc i64 %44 to i32
  store i32 %75, i32* %74, align 4, !tbaa !16
  %76 = add nuw nsw i64 %44, 1
  %77 = load i32, i32* %1, align 4, !tbaa !12
  %78 = trunc i64 %76 to i32
  %79 = icmp sgt i32 %77, %78
  br i1 %79, label %43, label %20, !llvm.loop !17

80:                                               ; preds = %8, %0
  call void @qsort(i8* bitcast ([100 x %struct.Distance]* @ds to i8*), i64 0, i64 16, i32 (i8*, i8*)* nonnull @cmp) #7
  br label %111

81:                                               ; preds = %23
  %82 = sext i32 %26 to i64
  call void @qsort(i8* bitcast ([100 x %struct.Distance]* @ds to i8*), i64 %82, i64 16, i32 (i8*, i8*)* nonnull @cmp) #7
  %83 = icmp sgt i32 %26, 0
  br i1 %83, label %84, label %111

84:                                               ; preds = %81
  %85 = zext i32 %26 to i64
  br label %86

86:                                               ; preds = %84, %86
  %87 = phi i64 [ 0, %84 ], [ %109, %86 ]
  %88 = getelementptr inbounds [100 x %struct.Distance], [100 x %struct.Distance]* @ds, i64 0, i64 %87, i32 1
  %89 = load i32, i32* %88, align 8, !tbaa !11
  %90 = sext i32 %89 to i64
  %91 = getelementptr inbounds [11 x %struct.Point], [11 x %struct.Point]* %2, i64 0, i64 %90, i32 0
  %92 = load i32, i32* %91, align 4, !tbaa !18
  %93 = getelementptr inbounds [11 x %struct.Point], [11 x %struct.Point]* %2, i64 0, i64 %90, i32 1
  %94 = load i32, i32* %93, align 4, !tbaa !20
  %95 = getelementptr inbounds [11 x %struct.Point], [11 x %struct.Point]* %2, i64 0, i64 %90, i32 2
  %96 = load i32, i32* %95, align 4, !tbaa !21
  %97 = getelementptr inbounds [100 x %struct.Distance], [100 x %struct.Distance]* @ds, i64 0, i64 %87, i32 2
  %98 = load i32, i32* %97, align 4, !tbaa !16
  %99 = sext i32 %98 to i64
  %100 = getelementptr inbounds [11 x %struct.Point], [11 x %struct.Point]* %2, i64 0, i64 %99, i32 0
  %101 = load i32, i32* %100, align 4, !tbaa !18
  %102 = getelementptr inbounds [11 x %struct.Point], [11 x %struct.Point]* %2, i64 0, i64 %99, i32 1
  %103 = load i32, i32* %102, align 4, !tbaa !20
  %104 = getelementptr inbounds [11 x %struct.Point], [11 x %struct.Point]* %2, i64 0, i64 %99, i32 2
  %105 = load i32, i32* %104, align 4, !tbaa !21
  %106 = getelementptr inbounds [100 x %struct.Distance], [100 x %struct.Distance]* @ds, i64 0, i64 %87, i32 0
  %107 = load double, double* %106, align 16, !tbaa !5
  %108 = call i32 (i8*, ...) @printf(i8* nonnull dereferenceable(1) getelementptr inbounds ([29 x i8], [29 x i8]* @.str.2, i64 0, i64 0), i32 %92, i32 %94, i32 %96, i32 %101, i32 %103, i32 %105, double %107)
  %109 = add nuw nsw i64 %87, 1
  %110 = icmp eq i64 %109, %85
  br i1 %110, label %111, label %86, !llvm.loop !22

111:                                              ; preds = %86, %80, %81
  call void @llvm.lifetime.end.p0i8(i64 132, i8* nonnull %4) #7
  call void @llvm.lifetime.end.p0i8(i64 4, i8* nonnull %3) #7
  ret i32 0
}